target datalayout = "e-m:e-p270:32:32-p271:32:32-p272:64:64-i64:64-i128:128-f80:128-n8:16:32:64-S128"
target triple = "x86_64-pc-linux-gnu"

%struct.TestConfig = type <{ i32, i8, i8, i8, i8, %"class.std::__cxx11::basic_string", %"class.std::__cxx11::basic_string", %"class.std::__cxx11::basic_string", %"class.std::__cxx11::basic_string", %"class.std::__cxx11::basic_string", i8, [7 x i8], %"class.std::__cxx11::basic_string", %"class.std::__cxx11::basic_string", i8, [7 x i8], %"class.std::__cxx11::basic_string", i8, i8, i8, i8, i8, i8, i8, i8, %"class.std::__cxx11::basic_string", %"class.std::__cxx11::basic_string", i8, [7 x i8], %"class.std::__cxx11::basic_string", %"class.std::__cxx11::basic_string", %"class.std::__cxx11::basic_string", %"class.std::__cxx11::basic_string", %"class.std::__cxx11::basic_string", i8, i8, i8, [5 x i8], %"class.std::__cxx11::basic_string", %"class.std::__cxx11::basic_string", %"class.std::__cxx11::basic_string", i8, [7 x i8], %"class.std::__cxx11::basic_string", i8, [7 x i8], %"class.std::__cxx11::basic_string", i32, i32, i32, i8, i8, i8, i8, i8, i8, [6 x i8], %"class.std::__cxx11::basic_string", %"class.std::__cxx11::basic_string", %"class.std::__cxx11::basic_string", i8, [3 x i8], i32, %"class.std::__cxx11::basic_string", %"class.std::__cxx11::basic_string", i8, i8, i8, i8, i8, i8, i8, i8, i8, i8, [6 x i8], %"class.std::__cxx11::basic_string", i8, i8, i8, i8, i8, [3 x i8], %"class.std::__cxx11::basic_string", i32, i8, i8, i8, i8, i32, i8, i8, i8, i8, i32, i8, [3 x i8] }>
%"class.std::__cxx11::basic_string" = type { %"struct.std::__cxx11::basic_string<char>::_Alloc_hider", i64, %union.anon }
%"struct.std::__cxx11::basic_string<char>::_Alloc_hider" = type { ptr }
%union.anon = type { i64, [8 x i8] }
%"class.std::unique_ptr.2" = type { %"struct.std::__uniq_ptr_data.3" }
%"struct.std::__uniq_ptr_data.3" = type { %"class.std::__uniq_ptr_impl.4" }
%"class.std::__uniq_ptr_impl.4" = type { %"class.std::tuple.5" }
%"class.std::tuple.5" = type { %"struct.std::_Tuple_impl.6" }
%"struct.std::_Tuple_impl.6" = type { %"struct.std::_Head_base.9" }
%"struct.std::_Head_base.9" = type { ptr }
%"class.std::unique_ptr.10" = type { %"struct.std::__uniq_ptr_data.11" }
%"struct.std::__uniq_ptr_data.11" = type { %"class.std::__uniq_ptr_impl.12" }
%"class.std::__uniq_ptr_impl.12" = type { %"class.std::tuple.13" }
%"class.std::tuple.13" = type { %"struct.std::_Tuple_impl.14" }
%"struct.std::_Tuple_impl.14" = type { %"struct.std::_Head_base.17" }
%"struct.std::_Head_base.17" = type { ptr }
%"class.std::vector" = type { %"struct.std::_Vector_base" }
%"struct.std::_Vector_base" = type { %"struct.std::_Vector_base<unsigned char, std::allocator<unsigned char>>::_Vector_impl" }
%"struct.std::_Vector_base<unsigned char, std::allocator<unsigned char>>::_Vector_impl" = type { %"struct.std::_Vector_base<unsigned char, std::allocator<unsigned char>>::_Vector_impl_data" }
%"struct.std::_Vector_base<unsigned char, std::allocator<unsigned char>>::_Vector_impl_data" = type { ptr, ptr, ptr }
%struct.TestState = type <{ ptr, %struct.timeval, %struct.timeval, %"class.std::unique_ptr.10", i8, [7 x i8], %"class.std::unique_ptr.2", %"class.std::unique_ptr.2", i8, i8, [6 x i8], %"class.std::unique_ptr.10", %"class.std::vector", i32, i8, [3 x i8] }>
%struct.timeval = type { i64, i64 }

@_ZL14g_config_index = internal global i32 0, align 4
@_ZL13g_state_index = internal global i32 0, align 4

; Function Attrs: mustprogress uwtable
define internal noundef ptr @_ZL12GetTestStatePK6ssl_st(ptr noundef %0) #6 {
  %2 = alloca ptr, align 8
  store ptr %0, ptr %2, align 8, !tbaa !204
  %3 = load ptr, ptr %2, align 8, !tbaa !204
  %4 = load i32, ptr @_ZL13g_state_index, align 4, !tbaa !6
  %5 = call ptr @SSL_get_ex_data(ptr noundef %3, i32 noundef %4)
  ret ptr %5
}

; Function Attrs: mustprogress uwtable
define internal noundef ptr @_ZL12GetConfigPtrPK6ssl_st(ptr noundef %0) #6 {
  %2 = alloca ptr, align 8
  store ptr %0, ptr %2, align 8, !tbaa !204
  %3 = load ptr, ptr %2, align 8, !tbaa !204
  %4 = load i32, ptr @_ZL14g_config_index, align 4, !tbaa !6
  %5 = call ptr @SSL_get_ex_data(ptr noundef %3, i32 noundef %4)
  ret ptr %5
}

; Function Attrs: mustprogress uwtable
define internal noundef i32 @_ZL6DoReadP6ssl_stPhm(ptr noundef %0, ptr noundef %1, i64 noundef %2) #6 {
  %4 = alloca ptr, align 8
  %5 = alloca ptr, align 8
  %6 = alloca i64, align 8
  %7 = alloca ptr, align 8
  %8 = alloca ptr, align 8
  %9 = alloca i32, align 4
  store ptr %0, ptr %4, align 8, !tbaa !204
  store ptr %1, ptr %5, align 8, !tbaa !13
  store i64 %2, ptr %6, align 8, !tbaa !28
  call void @llvm.lifetime.start.p0(i64 8, ptr %7) #18
  %10 = load ptr, ptr %4, align 8, !tbaa !204
  %11 = call noundef ptr @_ZL12GetConfigPtrPK6ssl_st(ptr noundef %10)
  store ptr %11, ptr %7, align 8, !tbaa !29
  call void @llvm.lifetime.start.p0(i64 8, ptr %8) #18
  %12 = load ptr, ptr %4, align 8, !tbaa !204
  %13 = call noundef ptr @_ZL12GetTestStatePK6ssl_st(ptr noundef %12)
  store ptr %13, ptr %8, align 8, !tbaa !155
  call void @llvm.lifetime.start.p0(i64 4, ptr %9) #18
  br label %14

14:                                               ; preds = %47, %3
  %15 = load ptr, ptr %7, align 8, !tbaa !29
  %16 = getelementptr inbounds nuw %struct.TestConfig, ptr %15, i32 0, i32 17
  %17 = load i8, ptr %16, align 8, !tbaa !37, !range !23, !noundef !24
  %18 = trunc i8 %17 to i1
  br i1 %18, label %19, label %23

19:                                               ; preds = %14
  %20 = load ptr, ptr %8, align 8, !tbaa !155
  %21 = getelementptr inbounds nuw %struct.TestState, ptr %20, i32 0, i32 0
  %22 = load ptr, ptr %21, align 8, !tbaa !121
  call void @_Z25AsyncBioEnforceWriteQuotaP6bio_stb(ptr noundef %22, i1 noundef zeroext false)
  br label %23

23:                                               ; preds = %19, %14
  %24 = load ptr, ptr %4, align 8, !tbaa !204
  %25 = load ptr, ptr %5, align 8, !tbaa !13
  %26 = load i64, ptr %6, align 8, !tbaa !28
  %27 = trunc i64 %26 to i32
  %28 = call i32 @SSL_read(ptr noundef %24, ptr noundef %25, i32 noundef %27)
  store i32 %28, ptr %9, align 4, !tbaa !6
  %29 = load ptr, ptr %7, align 8, !tbaa !29
  %30 = getelementptr inbounds nuw %struct.TestConfig, ptr %29, i32 0, i32 17
  %31 = load i8, ptr %30, align 8, !tbaa !37, !range !23, !noundef !24
  %32 = trunc i8 %31 to i1
  br i1 %32, label %33, label %37

33:                                               ; preds = %23
  %34 = load ptr, ptr %8, align 8, !tbaa !155
  %35 = getelementptr inbounds nuw %struct.TestState, ptr %34, i32 0, i32 0
  %36 = load ptr, ptr %35, align 8, !tbaa !121
  call void @_Z25AsyncBioEnforceWriteQuotaP6bio_stb(ptr noundef %36, i1 noundef zeroext true)
  br label %37

37:                                               ; preds = %33, %23
  br label %38

38:                                               ; preds = %37
  %39 = load ptr, ptr %7, align 8, !tbaa !29
  %40 = getelementptr inbounds nuw %struct.TestConfig, ptr %39, i32 0, i32 17
  %41 = load i8, ptr %40, align 8, !tbaa !37, !range !23, !noundef !24
  %42 = trunc i8 %41 to i1
  br i1 %42, label %43, label %47

43:                                               ; preds = %38
  %44 = load ptr, ptr %4, align 8, !tbaa !204
  %45 = load i32, ptr %9, align 4, !tbaa !6
  %46 = call noundef zeroext i1 @_ZL10RetryAsyncP6ssl_sti(ptr noundef %44, i32 noundef %45)
  br label %47

47:                                               ; preds = %43, %38
  %48 = phi i1 [ false, %38 ], [ %46, %43 ]
  br i1 %48, label %14, label %49, !llvm.loop !447

49:                                               ; preds = %47
  %50 = load i32, ptr %9, align 4, !tbaa !6
  call void @llvm.lifetime.end.p0(i64 4, ptr %9) #18
  call void @llvm.lifetime.end.p0(i64 8, ptr %8) #18
  call void @llvm.lifetime.end.p0(i64 8, ptr %7) #18
  ret i32 %50
}