; Function Attrs: mustprogress norecurse uwtable
define internal fastcc noundef i32 @_ZL6DoReadP6ssl_stPhm(ptr noundef %0, ptr noundef %1, i64 noundef range(i64 512, 16385) %2) unnamed_addr #0 {
  %4 = load i32, ptr @_ZL14g_config_index, align 4, !tbaa !6
  %5 = tail call noundef ptr @SSL_get_ex_data(ptr noundef %0, i32 noundef %4)
  %6 = load i32, ptr @_ZL13g_state_index, align 4, !tbaa !6
  %7 = tail call noundef ptr @SSL_get_ex_data(ptr noundef %0, i32 noundef %6)
  %8 = getelementptr inbounds nuw i8, ptr %5, i64 280
  %9 = trunc nuw nsw i64 %2 to i32
  br label %10

10:                                               ; preds = %22, %3
  %11 = load i8, ptr %8, align 8, !tbaa !57, !range !39, !noundef !40
  %12 = trunc nuw i8 %11 to i1
  br i1 %12, label %13, label %15

13:                                               ; preds = %10
  %14 = load ptr, ptr %7, align 8, !tbaa !118
  tail call void @_Z25AsyncBioEnforceWriteQuotaP6bio_stb(ptr noundef %14, i1 noundef zeroext false)
  br label %15

15:                                               ; preds = %13, %10
  %16 = tail call i32 @SSL_read(ptr noundef %0, ptr noundef %1, i32 noundef %9)
  %17 = load i8, ptr %8, align 8, !tbaa !57, !range !39, !noundef !40
  %18 = trunc nuw i8 %17 to i1
  br i1 %18, label %19, label %.critedge

19:                                               ; preds = %15
  %20 = load ptr, ptr %7, align 8, !tbaa !118
  tail call void @_Z25AsyncBioEnforceWriteQuotaP6bio_stb(ptr noundef %20, i1 noundef zeroext true)
  %.pre = load i8, ptr %8, align 8, !tbaa !57, !range !39
  %21 = trunc nuw i8 %.pre to i1
  br i1 %21, label %22, label %.critedge

22:                                               ; preds = %19
  %23 = tail call fastcc noundef zeroext i1 @_ZL10RetryAsyncP6ssl_sti(ptr noundef %0, i32 noundef %16)
  br i1 %23, label %10, label %.critedge, !llvm.loop !199

.critedge:                                        ; preds = %15, %19, %22
  ret i32 %16
}